target datalayout = "e-m:e-p270:32:32-p271:32:32-p272:64:64-i64:64-i128:128-f80:128-n8:16:32:64-S128"
target triple = "x86_64-pc-linux-gnu"

%struct.grpc_slice = type { ptr, %"union.grpc_slice::grpc_slice_data" }
%"union.grpc_slice::grpc_slice_data" = type { %"struct.grpc_slice::grpc_slice_data::grpc_slice_refcounted", [8 x i8] }
%"struct.grpc_slice::grpc_slice_data::grpc_slice_refcounted" = type { i64, ptr }
%struct.grpc_slice_buffer = type { ptr, ptr, i64, i64, i64, [6 x %struct.grpc_slice] }
%"struct.grpc_slice::grpc_slice_data::grpc_slice_inlined" = type { i8, [23 x i8] }
%"class.absl::lts_20240722::log_internal::Voidify" = type { i8 }
%"class.absl::lts_20240722::log_internal::LogMessageFatal" = type { %"class.absl::lts_20240722::log_internal::LogMessage" }
%"class.absl::lts_20240722::log_internal::LogMessage" = type { %"class.absl::lts_20240722::base_internal::ErrnoSaver", %"class.std::unique_ptr" }
%"class.absl::lts_20240722::base_internal::ErrnoSaver" = type { i32 }
%"class.std::unique_ptr" = type { %"struct.std::__uniq_ptr_data" }
%"struct.std::__uniq_ptr_data" = type { %"class.std::__uniq_ptr_impl" }
%"class.std::__uniq_ptr_impl" = type { %"class.std::tuple" }
%"class.std::tuple" = type { %"struct.std::_Tuple_impl" }
%"struct.std::_Tuple_impl" = type { %"struct.std::_Head_base.1" }
%"struct.std::_Head_base.1" = type { ptr }
%"class.std::basic_string_view" = type { i64, ptr }

@.str = private unnamed_addr constant [122 x i8] c"generated/home/dtcxzyw/WorkSpace/Projects/compilers/llvm-opt-benchmark/bench/grpc/grpc/src/core/lib/slice/slice_buffer.cc\00", align 1
@.str.2 = private unnamed_addr constant [17 x i8] c"src->length >= n\00", align 1

; Function Attrs: noinline noreturn nounwind uwtable
define linkonce_odr hidden void @__clang_call_terminate(ptr noundef %0) #14 comdat {
  %2 = call ptr @__cxa_begin_catch(ptr %0) #3
  call void @_ZSt9terminatev() #19
  unreachable
}

; Function Attrs: mustprogress nounwind uwtable
define linkonce_odr noundef i64 @_ZNSt11char_traitsIcE6lengthEPKc(ptr noundef %0) #6 comdat align 2 {
  %2 = alloca ptr, align 8
  store ptr %0, ptr %2, align 8, !tbaa !41
  %3 = load ptr, ptr %2, align 8, !tbaa !41
  %4 = call i64 @strlen(ptr noundef %3) #3
  ret i64 %4
}

; Function Attrs: mustprogress nounwind uwtable
define linkonce_odr void @_ZNKO4absl12lts_2024072212log_internal7VoidifyaaINS1_10LogMessageEEEvRKT_(ptr noundef nonnull align 1 dereferenceable(1) %0, ptr noundef nonnull align 8 dereferenceable(16) %1) #6 comdat align 2 {
  %3 = alloca ptr, align 8
  %4 = alloca ptr, align 8
  store ptr %0, ptr %3, align 8, !tbaa !44
  store ptr %1, ptr %4, align 8, !tbaa !46
  ret void
}

; Function Attrs: mustprogress nounwind uwtable
define linkonce_odr noundef nonnull align 8 dereferenceable(16) ptr @_ZN4absl12lts_2024072212log_internal10LogMessage14InternalStreamEv(ptr noundef nonnull align 8 dereferenceable(16) %0) #6 comdat align 2 {
  %2 = alloca ptr, align 8
  store ptr %0, ptr %2, align 8, !tbaa !46
  %3 = load ptr, ptr %2, align 8
  ret ptr %3
}

; Function Attrs: mustprogress nounwind uwtable
define linkonce_odr void @_ZNSt17basic_string_viewIcSt11char_traitsIcEEC2EPKc(ptr noundef nonnull align 8 dereferenceable(16) %0, ptr noundef nonnull %1) unnamed_addr #6 comdat align 2 personality ptr @__gxx_personality_v0 {
  %3 = alloca ptr, align 8
  %4 = alloca ptr, align 8
  store ptr %0, ptr %3, align 8, !tbaa !48
  store ptr %1, ptr %4, align 8, !tbaa !41
  %5 = load ptr, ptr %3, align 8
  %6 = getelementptr inbounds nuw %"class.std::basic_string_view", ptr %5, i32 0, i32 0
  %7 = load ptr, ptr %4, align 8, !tbaa !41
  %8 = invoke noundef i64 @_ZNSt11char_traitsIcE6lengthEPKc(ptr noundef %7)
          to label %9 unwind label %12

9:                                                ; preds = %2
  store i64 %8, ptr %6, align 8, !tbaa !50
  %10 = getelementptr inbounds nuw %"class.std::basic_string_view", ptr %5, i32 0, i32 1
  %11 = load ptr, ptr %4, align 8, !tbaa !41
  store ptr %11, ptr %10, align 8, !tbaa !52
  ret void

12:                                               ; preds = %2
  %13 = landingpad { ptr, i32 }
          catch ptr null
  %14 = extractvalue { ptr, i32 } %13, 0
  call void @__clang_call_terminate(ptr %14) #19
  unreachable
}

; Function Attrs: mustprogress uwtable
define void @_Z40grpc_slice_buffer_copy_first_into_bufferPK17grpc_slice_buffermPv(ptr noundef %0, i64 noundef %1, ptr noundef %2) #4 personality ptr @__gxx_personality_v0 {
  %4 = alloca ptr, align 8
  %5 = alloca i64, align 8
  %6 = alloca ptr, align 8
  %7 = alloca ptr, align 8
  %8 = alloca %"class.absl::lts_20240722::log_internal::Voidify", align 1
  %9 = alloca %"class.absl::lts_20240722::log_internal::LogMessageFatal", align 8
  %10 = alloca i1, align 1
  %11 = alloca %"class.std::basic_string_view", align 8
  %12 = alloca i1, align 1
  %13 = alloca ptr, align 8
  %14 = alloca i32, align 4
  %15 = alloca i64, align 8
  %16 = alloca i32, align 4
  %17 = alloca %struct.grpc_slice, align 8
  %18 = alloca i64, align 8
  store ptr %0, ptr %4, align 8, !tbaa !10
  store i64 %1, ptr %5, align 8, !tbaa !16
  store ptr %2, ptr %6, align 8, !tbaa !65
  call void @llvm.lifetime.start.p0(i64 8, ptr %7) #3
  %19 = load ptr, ptr %6, align 8, !tbaa !65
  store ptr %19, ptr %7, align 8, !tbaa !41
  %20 = load ptr, ptr %4, align 8, !tbaa !10
  %21 = getelementptr inbounds nuw %struct.grpc_slice_buffer, ptr %20, i32 0, i32 4
  %22 = load i64, ptr %21, align 8, !tbaa !23
  %23 = load i64, ptr %5, align 8, !tbaa !16
  %24 = icmp uge i64 %22, %23
  %25 = xor i1 %24, true
  %26 = zext i1 %25 to i64
  %27 = call i64 @llvm.expect.i64(i64 %26, i64 0)
  %28 = icmp ne i64 %27, 0
  call void @llvm.lifetime.start.p0(i64 1, ptr %8) #3
  store i1 false, ptr %10, align 1
  store i1 false, ptr %12, align 1
  br i1 %28, label %30, label %29

29:                                               ; preds = %3
  br label %38

30:                                               ; preds = %3
  call void @llvm.lifetime.start.p0(i64 16, ptr %9) #3
  store i1 true, ptr %10, align 1
  call void @_ZNSt17basic_string_viewIcSt11char_traitsIcEEC2EPKc(ptr noundef nonnull align 8 dereferenceable(16) %11, ptr noundef @.str.2) #3
  %31 = getelementptr inbounds nuw { i64, ptr }, ptr %11, i32 0, i32 0
  %32 = load i64, ptr %31, align 8
  %33 = getelementptr inbounds nuw { i64, ptr }, ptr %11, i32 0, i32 1
  %34 = load ptr, ptr %33, align 8
  call void @_ZN4absl12lts_2024072212log_internal15LogMessageFatalC1EPKciSt17basic_string_viewIcSt11char_traitsIcEE(ptr noundef nonnull align 8 dereferenceable(16) %9, ptr noundef @.str, i32 noundef 427, i64 %32, ptr %34) #20
  store i1 true, ptr %12, align 1
  %35 = invoke noundef nonnull align 8 dereferenceable(16) ptr @_ZN4absl12lts_2024072212log_internal10LogMessage14InternalStreamEv(ptr noundef nonnull align 8 dereferenceable(16) %9)
          to label %36 unwind label %41

36:                                               ; preds = %30
  invoke void @_ZNKO4absl12lts_2024072212log_internal7VoidifyaaINS1_10LogMessageEEEvRKT_(ptr noundef nonnull align 1 dereferenceable(1) %8, ptr noundef nonnull align 8 dereferenceable(16) %35)
          to label %37 unwind label %41

37:                                               ; preds = %36
  br label %38

38:                                               ; preds = %37, %29
  %39 = load i1, ptr %12, align 1
  br i1 %39, label %40, label %47

40:                                               ; preds = %38
  call void @_ZN4absl12lts_2024072212log_internal15LogMessageFatalD1Ev(ptr noundef nonnull align 8 dereferenceable(16) %9) #19
  unreachable

41:                                               ; preds = %36, %30
  %42 = landingpad { ptr, i32 }
          cleanup
  %43 = extractvalue { ptr, i32 } %42, 0
  store ptr %43, ptr %13, align 8
  %44 = extractvalue { ptr, i32 } %42, 1
  store i32 %44, ptr %14, align 4
  %45 = load i1, ptr %12, align 1
  br i1 %45, label %58, label %60

46:                                               ; No predecessors!
  br label %47

47:                                               ; preds = %46, %38
  %48 = load i1, ptr %10, align 1
  br i1 %48, label %49, label %50

49:                                               ; preds = %47
  call void @llvm.lifetime.end.p0(i64 16, ptr %9) #3
  br label %50

50:                                               ; preds = %49, %47
  call void @llvm.lifetime.end.p0(i64 1, ptr %8) #3
  call void @llvm.lifetime.start.p0(i64 8, ptr %15) #3
  store i64 0, ptr %15, align 8, !tbaa !16
  br label %51

51:                                               ; preds = %128, %50
  %52 = load i64, ptr %15, align 8, !tbaa !16
  %53 = load ptr, ptr %4, align 8, !tbaa !10
  %54 = getelementptr inbounds nuw %struct.grpc_slice_buffer, ptr %53, i32 0, i32 2
  %55 = load i64, ptr %54, align 8, !tbaa !12
  %56 = icmp ult i64 %52, %55
  br i1 %56, label %64, label %57

57:                                               ; preds = %51
  store i32 2, ptr %16, align 4
  br label %131

58:                                               ; preds = %41
  call void @_ZN4absl12lts_2024072212log_internal15LogMessageFatalD1Ev(ptr noundef nonnull align 8 dereferenceable(16) %9) #19
  unreachable

59:                                               ; No predecessors!
  br label %60

60:                                               ; preds = %59, %41
  %61 = load i1, ptr %10, align 1
  br i1 %61, label %62, label %63

62:                                               ; preds = %60
  call void @llvm.lifetime.end.p0(i64 16, ptr %9) #3
  br label %63

63:                                               ; preds = %62, %60
  call void @llvm.lifetime.end.p0(i64 1, ptr %8) #3
  call void @llvm.lifetime.end.p0(i64 8, ptr %7) #3
  br label %137

64:                                               ; preds = %51
  call void @llvm.lifetime.start.p0(i64 32, ptr %17) #3
  %65 = load ptr, ptr %4, align 8, !tbaa !10
  %66 = getelementptr inbounds nuw %struct.grpc_slice_buffer, ptr %65, i32 0, i32 1
  %67 = load ptr, ptr %66, align 8, !tbaa !18
  %68 = load i64, ptr %15, align 8, !tbaa !16
  %69 = getelementptr inbounds nuw %struct.grpc_slice, ptr %67, i64 %68
  call void @llvm.memcpy.p0.p0.i64(ptr align 8 %17, ptr align 8 %69, i64 32, i1 false), !tbaa.struct !24
  call void @llvm.lifetime.start.p0(i64 8, ptr %18) #3
  %70 = getelementptr inbounds nuw %struct.grpc_slice, ptr %17, i32 0, i32 0
  %71 = load ptr, ptr %70, align 8, !tbaa !19
  %72 = icmp ne ptr %71, null
  br i1 %72, label %73, label %77

73:                                               ; preds = %64
  %74 = getelementptr inbounds nuw %struct.grpc_slice, ptr %17, i32 0, i32 1
  %75 = getelementptr inbounds nuw %"struct.grpc_slice::grpc_slice_data::grpc_slice_refcounted", ptr %74, i32 0, i32 0
  %76 = load i64, ptr %75, align 8, !tbaa !22
  br label %82

77:                                               ; preds = %64
  %78 = getelementptr inbounds nuw %struct.grpc_slice, ptr %17, i32 0, i32 1
  %79 = getelementptr inbounds nuw %"struct.grpc_slice::grpc_slice_data::grpc_slice_inlined", ptr %78, i32 0, i32 0
  %80 = load i8, ptr %79, align 8, !tbaa !22
  %81 = zext i8 %80 to i64
  br label %82

82:                                               ; preds = %77, %73
  %83 = phi i64 [ %76, %73 ], [ %81, %77 ]
  store i64 %83, ptr %18, align 8, !tbaa !16
  %84 = load i64, ptr %18, align 8, !tbaa !16
  %85 = load i64, ptr %5, align 8, !tbaa !16
  %86 = icmp uge i64 %84, %85
  br i1 %86, label %87, label %103

87:                                               ; preds = %82
  %88 = load ptr, ptr %7, align 8, !tbaa !41
  %89 = getelementptr inbounds nuw %struct.grpc_slice, ptr %17, i32 0, i32 0
  %90 = load ptr, ptr %89, align 8, !tbaa !19
  %91 = icmp ne ptr %90, null
  br i1 %91, label %92, label %96

92:                                               ; preds = %87
  %93 = getelementptr inbounds nuw %struct.grpc_slice, ptr %17, i32 0, i32 1
  %94 = getelementptr inbounds nuw %"struct.grpc_slice::grpc_slice_data::grpc_slice_refcounted", ptr %93, i32 0, i32 1
  %95 = load ptr, ptr %94, align 8, !tbaa !22
  br label %100

96:                                               ; preds = %87
  %97 = getelementptr inbounds nuw %struct.grpc_slice, ptr %17, i32 0, i32 1
  %98 = getelementptr inbounds nuw %"struct.grpc_slice::grpc_slice_data::grpc_slice_inlined", ptr %97, i32 0, i32 1
  %99 = getelementptr inbounds [23 x i8], ptr %98, i64 0, i64 0
  br label %100

100:                                              ; preds = %96, %92
  %101 = phi ptr [ %95, %92 ], [ %99, %96 ]
  %102 = load i64, ptr %5, align 8, !tbaa !16
  call void @llvm.memcpy.p0.p0.i64(ptr align 1 %88, ptr align 1 %101, i64 %102, i1 false)
  store i32 1, ptr %16, align 4
  br label %125

103:                                              ; preds = %82
  %104 = load ptr, ptr %7, align 8, !tbaa !41
  %105 = getelementptr inbounds nuw %struct.grpc_slice, ptr %17, i32 0, i32 0
  %106 = load ptr, ptr %105, align 8, !tbaa !19
  %107 = icmp ne ptr %106, null
  br i1 %107, label %108, label %112

108:                                              ; preds = %103
  %109 = getelementptr inbounds nuw %struct.grpc_slice, ptr %17, i32 0, i32 1
  %110 = getelementptr inbounds nuw %"struct.grpc_slice::grpc_slice_data::grpc_slice_refcounted", ptr %109, i32 0, i32 1
  %111 = load ptr, ptr %110, align 8, !tbaa !22
  br label %116

112:                                              ; preds = %103
  %113 = getelementptr inbounds nuw %struct.grpc_slice, ptr %17, i32 0, i32 1
  %114 = getelementptr inbounds nuw %"struct.grpc_slice::grpc_slice_data::grpc_slice_inlined", ptr %113, i32 0, i32 1
  %115 = getelementptr inbounds [23 x i8], ptr %114, i64 0, i64 0
  br label %116

116:                                              ; preds = %112, %108
  %117 = phi ptr [ %111, %108 ], [ %115, %112 ]
  %118 = load i64, ptr %18, align 8, !tbaa !16
  call void @llvm.memcpy.p0.p0.i64(ptr align 1 %104, ptr align 1 %117, i64 %118, i1 false)
  %119 = load i64, ptr %18, align 8, !tbaa !16
  %120 = load ptr, ptr %7, align 8, !tbaa !41
  %121 = getelementptr inbounds nuw i8, ptr %120, i64 %119
  store ptr %121, ptr %7, align 8, !tbaa !41
  %122 = load i64, ptr %18, align 8, !tbaa !16
  %123 = load i64, ptr %5, align 8, !tbaa !16
  %124 = sub i64 %123, %122
  store i64 %124, ptr %5, align 8, !tbaa !16
  store i32 0, ptr %16, align 4
  br label %125

125:                                              ; preds = %116, %100
  call void @llvm.lifetime.end.p0(i64 8, ptr %18) #3
  call void @llvm.lifetime.end.p0(i64 32, ptr %17) #3
  %126 = load i32, ptr %16, align 4
  switch i32 %126, label %131 [
    i32 0, label %127
  ]

127:                                              ; preds = %125
  br label %128

128:                                              ; preds = %127
  %129 = load i64, ptr %15, align 8, !tbaa !16
  %130 = add i64 %129, 1
  store i64 %130, ptr %15, align 8, !tbaa !16
  br label %51, !llvm.loop !67

131:                                              ; preds = %125, %57
  call void @llvm.lifetime.end.p0(i64 8, ptr %15) #3
  %132 = load i32, ptr %16, align 4
  switch i32 %132, label %134 [
    i32 2, label %133
  ]

133:                                              ; preds = %131
  store i32 0, ptr %16, align 4
  br label %134

134:                                              ; preds = %133, %131
  call void @llvm.lifetime.end.p0(i64 8, ptr %7) #3
  %135 = load i32, ptr %16, align 4
  switch i32 %135, label %142 [
    i32 0, label %136
    i32 1, label %136
  ]

136:                                              ; preds = %134, %134
  ret void

137:                                              ; preds = %63
  %138 = load ptr, ptr %13, align 8
  %139 = load i32, ptr %14, align 4
  %140 = insertvalue { ptr, i32 } poison, ptr %138, 0
  %141 = insertvalue { ptr, i32 } %140, i32 %139, 1
  resume { ptr, i32 } %141

142:                                              ; preds = %134
  unreachable
}