; Function Attrs: mustprogress uwtable
define void @_Z40grpc_slice_buffer_copy_first_into_bufferPK17grpc_slice_buffermPv(ptr noundef readonly captures(none) %0, i64 noundef %1, ptr noundef writeonly captures(none) %2) local_unnamed_addr #3 personality ptr @__gxx_personality_v0 {
  %4 = alloca %"class.absl::lts_20240722::log_internal::LogMessageFatal", align 8
  %5 = alloca %struct.grpc_slice, align 8
  %6 = getelementptr inbounds nuw i8, ptr %0, i64 32
  %7 = load i64, ptr %6, align 8, !tbaa !20
  %.not = icmp ult i64 %7, %1
  br i1 %.not, label %14, label %.critedge.preheader, !prof !27

.critedge.preheader:                              ; preds = %3
  %8 = getelementptr inbounds nuw i8, ptr %0, i64 16
  %9 = load i64, ptr %8, align 8, !tbaa !13
  %.not42 = icmp eq i64 %9, 0
  br i1 %.not42, label %.loopexit, label %.lr.ph

.lr.ph:                                           ; preds = %.critedge.preheader
  %10 = getelementptr inbounds nuw i8, ptr %0, i64 8
  %11 = getelementptr inbounds nuw i8, ptr %5, i64 8
  %12 = getelementptr inbounds nuw i8, ptr %5, i64 16
  %13 = getelementptr inbounds nuw i8, ptr %5, i64 9
  br label %15

14:                                               ; preds = %3
  call void @llvm.lifetime.start.p0(i64 16, ptr nonnull %4) #22
  call void @_ZN4absl12lts_2024072212log_internal15LogMessageFatalC1EPKciSt17basic_string_viewIcSt11char_traitsIcEE(ptr noundef nonnull align 8 dereferenceable(16) %4, ptr noundef nonnull @.str, i32 noundef 427, i64 16, ptr nonnull @.str.2) #24
  call void @_ZN4absl12lts_2024072212log_internal15LogMessageFatalD1Ev(ptr noundef nonnull align 8 dereferenceable(16) %4) #23
  unreachable

15:                                               ; preds = %.lr.ph, %.critedge
  %.041 = phi i64 [ %1, %.lr.ph ], [ %26, %.critedge ]
  %.02440 = phi i64 [ 0, %.lr.ph ], [ %27, %.critedge ]
  %.02739 = phi ptr [ %2, %.lr.ph ], [ %25, %.critedge ]
  call void @llvm.lifetime.start.p0(i64 32, ptr nonnull %5) #22
  %16 = load ptr, ptr %10, align 8, !tbaa !17
  %17 = getelementptr inbounds nuw %struct.grpc_slice, ptr %16, i64 %.02440
  call void @llvm.memcpy.p0.p0.i64(ptr noundef nonnull align 8 dereferenceable(32) %5, ptr noundef nonnull align 8 dereferenceable(32) %17, i64 32, i1 false), !tbaa.struct !3
  %18 = load ptr, ptr %5, align 8, !tbaa !18
  %.not30 = icmp eq ptr %18, null
  %19 = load i64, ptr %11, align 8
  %20 = and i64 %19, 255
  %21 = select i1 %.not30, i64 %20, i64 %19
  %.not31 = icmp ult i64 %21, %.041
  %22 = load ptr, ptr %12, align 8
  %23 = select i1 %.not30, ptr %13, ptr %22
  br i1 %.not31, label %.critedge, label %24

24:                                               ; preds = %15
  call void @llvm.memcpy.p0.p0.i64(ptr align 1 %.02739, ptr align 1 %23, i64 %.041, i1 false)
  call void @llvm.lifetime.end.p0(i64 32, ptr nonnull %5) #22
  br label %.loopexit

.critedge:                                        ; preds = %15
  call void @llvm.memcpy.p0.p0.i64(ptr align 1 %.02739, ptr align 1 %23, i64 %21, i1 false)
  %25 = getelementptr inbounds nuw i8, ptr %.02739, i64 %21
  %26 = sub nuw i64 %.041, %21
  call void @llvm.lifetime.end.p0(i64 32, ptr nonnull %5) #22
  %27 = add nuw i64 %.02440, 1
  %28 = load i64, ptr %8, align 8, !tbaa !13
  %29 = icmp ult i64 %27, %28
  br i1 %29, label %15, label %.loopexit, !llvm.loop !85

.loopexit:                                        ; preds = %.critedge, %.critedge.preheader, %24
  ret void
}